; Function Attrs: nounwind uwtable
define ptr @l_Std_Queue_enqueueAll___rarg(ptr noundef %0, ptr noundef %1) #1 {
  %.val = load i32, ptr %1, align 4, !tbaa !8
  %3 = icmp eq i32 %.val, 1
  %4 = getelementptr inbounds nuw i8, ptr %1, i64 8
  %5 = load ptr, ptr %4, align 8, !tbaa !4
  br i1 %3, label %6, label %8

6:                                                ; preds = %2
  %7 = tail call ptr @l_List_appendTR___rarg(ptr noundef %0, ptr noundef %5) #4
  store ptr %7, ptr %4, align 8, !tbaa !4
  br label %43

8:                                                ; preds = %2
  %9 = getelementptr inbounds nuw i8, ptr %1, i64 16
  %10 = load ptr, ptr %9, align 8, !tbaa !4
  %11 = ptrtoint ptr %10 to i64
  %12 = and i64 %11, 1
  %.not = icmp eq i64 %12, 0
  br i1 %.not, label %13, label %lean_inc.exit20

13:                                               ; preds = %8
  %.val.i = load i32, ptr %10, align 4, !tbaa !8
  %14 = icmp sgt i32 %.val.i, 0
  br i1 %14, label %15, label %17, !prof !13

15:                                               ; preds = %13
  %16 = add nuw i32 %.val.i, 1
  store i32 %16, ptr %10, align 4, !tbaa !8
  br label %lean_inc.exit20

17:                                               ; preds = %13
  %.not.i21 = icmp eq i32 %.val.i, 0
  br i1 %.not.i21, label %lean_inc.exit20, label %18

18:                                               ; preds = %17
  tail call void @lean_inc_ref_cold(ptr noundef nonnull %10) #4
  br label %lean_inc.exit20

lean_inc.exit20:                                  ; preds = %18, %17, %15, %8
  %19 = ptrtoint ptr %5 to i64
  %20 = and i64 %19, 1
  %.not25 = icmp eq i64 %20, 0
  br i1 %.not25, label %21, label %lean_inc.exit

21:                                               ; preds = %lean_inc.exit20
  %.val.i22 = load i32, ptr %5, align 4, !tbaa !8
  %22 = icmp sgt i32 %.val.i22, 0
  br i1 %22, label %23, label %25, !prof !13

23:                                               ; preds = %21
  %24 = add nuw i32 %.val.i22, 1
  store i32 %24, ptr %5, align 4, !tbaa !8
  br label %lean_inc.exit

25:                                               ; preds = %21
  %.not.i23 = icmp eq i32 %.val.i22, 0
  br i1 %.not.i23, label %lean_inc.exit, label %26

26:                                               ; preds = %25
  tail call void @lean_inc_ref_cold(ptr noundef nonnull %5) #4
  br label %lean_inc.exit

lean_inc.exit:                                    ; preds = %26, %25, %23, %lean_inc.exit20
  %27 = ptrtoint ptr %1 to i64
  %28 = and i64 %27, 1
  %.not26 = icmp eq i64 %28, 0
  br i1 %.not26, label %29, label %lean_dec.exit

29:                                               ; preds = %lean_inc.exit
  %30 = load i32, ptr %1, align 4, !tbaa !8
  %31 = icmp sgt i32 %30, 1
  br i1 %31, label %32, label %34, !prof !13

32:                                               ; preds = %29
  %33 = add nsw i32 %30, -1
  store i32 %33, ptr %1, align 4, !tbaa !8
  br label %lean_dec.exit

34:                                               ; preds = %29
  %.not.i = icmp eq i32 %30, 0
  br i1 %.not.i, label %lean_dec.exit, label %35

35:                                               ; preds = %34
  tail call void @lean_dec_ref_cold(ptr noundef nonnull %1) #4
  br label %lean_dec.exit

lean_dec.exit:                                    ; preds = %35, %34, %32, %lean_inc.exit
  %36 = tail call ptr @l_List_appendTR___rarg(ptr noundef %0, ptr noundef %5) #4
  tail call void @lean_inc_heartbeat() #4
  %37 = tail call noalias ptr @mi_malloc_small(i64 noundef 24) #4
  %38 = icmp eq ptr %37, null
  br i1 %38, label %39, label %lean_alloc_ctor.exit

39:                                               ; preds = %lean_dec.exit
  tail call void @lean_internal_panic_out_of_memory() #5
  unreachable

lean_alloc_ctor.exit:                             ; preds = %lean_dec.exit
  %40 = getelementptr inbounds nuw i8, ptr %37, i64 4
  store i32 1, ptr %37, align 4, !tbaa !8
  store i32 131096, ptr %40, align 4
  %41 = getelementptr inbounds nuw i8, ptr %37, i64 8
  store ptr %36, ptr %41, align 8, !tbaa !4
  %42 = getelementptr inbounds nuw i8, ptr %37, i64 16
  store ptr %10, ptr %42, align 8, !tbaa !4
  br label %43

43:                                               ; preds = %lean_alloc_ctor.exit, %6
  %.0 = phi ptr [ %1, %6 ], [ %37, %lean_alloc_ctor.exit ]
  ret ptr %.0
}